; Function Attrs: mustprogress nounwind uwtable
define hidden void @_ZNK14XCollectedHeap13gc_threads_doEP13ThreadClosure(ptr noundef nonnull align 64 dereferenceable(4432) %0, ptr noundef %1) unnamed_addr #1 align 2 {
  %3 = getelementptr inbounds i8, ptr %0, i64 4296
  %4 = load ptr, ptr %3, align 8
  %5 = load ptr, ptr %1, align 8
  %6 = load ptr, ptr %5, align 8
  tail call void %6(ptr noundef nonnull align 8 dereferenceable(8) %1, ptr noundef %4) #9
  %7 = getelementptr inbounds i8, ptr %0, i64 4288
  %8 = load ptr, ptr %7, align 64
  %9 = load ptr, ptr %1, align 8
  %10 = load ptr, ptr %9, align 8
  tail call void %10(ptr noundef nonnull align 8 dereferenceable(8) %1, ptr noundef %8) #9
  %11 = getelementptr inbounds i8, ptr %0, i64 4304
  %12 = load ptr, ptr %11, align 16
  %13 = load ptr, ptr %1, align 8
  %14 = load ptr, ptr %13, align 8
  tail call void %14(ptr noundef nonnull align 8 dereferenceable(8) %1, ptr noundef %12) #9
  %15 = getelementptr inbounds i8, ptr %0, i64 192
  tail call void @_ZNK5XHeap10threads_doEP13ThreadClosure(ptr noundef nonnull align 64 dereferenceable(4088) %15, ptr noundef nonnull %1) #9
  %16 = getelementptr inbounds i8, ptr %0, i64 4312
  tail call void @_ZNK15XRuntimeWorkers10threads_doEP13ThreadClosure(ptr noundef nonnull align 8 dereferenceable(120) %16, ptr noundef nonnull %1) #9
  ret void
}